target datalayout = "e-m:e-p270:32:32-p271:32:32-p272:64:64-i64:64-i128:128-f80:128-n8:16:32:64-S128"
target triple = "x86_64-pc-linux-gnu"

%struct.lv_ll_t = type { i32, ptr, ptr }
%struct._lv_group_t = type { %struct.lv_ll_t, ptr, ptr, ptr, ptr, i8 }
%struct._lv_obj_t = type { ptr, ptr, ptr, ptr, ptr, %struct.lv_area_t, i32, i16, i16 }
%struct.lv_area_t = type { i32, i32, i32, i32 }
%struct._lv_obj_spec_attr_t = type { ptr, ptr, %struct.lv_event_list_t, %struct.lv_point_t, i32, i32, i16, i16 }
%struct.lv_event_list_t = type { %struct._lv_array_t, i8 }
%struct._lv_array_t = type { ptr, i32, i32, i32, i8 }
%struct.lv_point_t = type { i32, i32 }

; Function Attrs: nounwind uwtable
define void @lv_group_focus_prev(ptr noundef %0) #0 {
  %2 = alloca ptr, align 8
  %3 = alloca i8, align 1
  store ptr %0, ptr %2, align 8, !tbaa !3
  br label %4

4:                                                ; preds = %1
  %5 = load ptr, ptr %2, align 8, !tbaa !3
  %6 = icmp ne ptr %5, null
  br i1 %6, label %11, label %7

7:                                                ; preds = %4
  br label %8

8:                                                ; preds = %7
  br label %9

9:                                                ; preds = %8
  br label %10

10:                                               ; preds = %9, %10
  br label %10

11:                                               ; preds = %4
  br label %12

12:                                               ; preds = %11
  call void @llvm.lifetime.start.p0(i64 1, ptr %3) #3
  %13 = load ptr, ptr %2, align 8, !tbaa !3
  %14 = call zeroext i1 @focus_next_core(ptr noundef %13, ptr noundef @lv_ll_get_tail, ptr noundef @lv_ll_get_prev)
  %15 = zext i1 %14 to i8
  store i8 %15, ptr %3, align 1, !tbaa !44
  %16 = load ptr, ptr %2, align 8, !tbaa !3
  %17 = getelementptr inbounds nuw %struct._lv_group_t, ptr %16, i32 0, i32 3
  %18 = load ptr, ptr %17, align 8, !tbaa !12
  %19 = icmp ne ptr %18, null
  br i1 %19, label %20, label %29

20:                                               ; preds = %12
  %21 = load i8, ptr %3, align 1, !tbaa !44, !range !45, !noundef !46
  %22 = trunc i8 %21 to i1
  br i1 %22, label %28, label %23

23:                                               ; preds = %20
  %24 = load ptr, ptr %2, align 8, !tbaa !3
  %25 = getelementptr inbounds nuw %struct._lv_group_t, ptr %24, i32 0, i32 3
  %26 = load ptr, ptr %25, align 8, !tbaa !12
  %27 = load ptr, ptr %2, align 8, !tbaa !3
  call void %26(ptr noundef %27, i1 noundef zeroext false)
  br label %28

28:                                               ; preds = %23, %20
  br label %29

29:                                               ; preds = %28, %12
  call void @llvm.lifetime.end.p0(i64 1, ptr %3) #3
  ret void
}

; Function Attrs: nounwind uwtable
define void @lv_group_focus_next(ptr noundef %0) #0 {
  %2 = alloca ptr, align 8
  %3 = alloca i8, align 1
  store ptr %0, ptr %2, align 8, !tbaa !3
  br label %4

4:                                                ; preds = %1
  %5 = load ptr, ptr %2, align 8, !tbaa !3
  %6 = icmp ne ptr %5, null
  br i1 %6, label %11, label %7

7:                                                ; preds = %4
  br label %8

8:                                                ; preds = %7
  br label %9

9:                                                ; preds = %8
  br label %10

10:                                               ; preds = %9, %10
  br label %10

11:                                               ; preds = %4
  br label %12

12:                                               ; preds = %11
  call void @llvm.lifetime.start.p0(i64 1, ptr %3) #3
  %13 = load ptr, ptr %2, align 8, !tbaa !3
  %14 = call zeroext i1 @focus_next_core(ptr noundef %13, ptr noundef @lv_ll_get_head, ptr noundef @lv_ll_get_next)
  %15 = zext i1 %14 to i8
  store i8 %15, ptr %3, align 1, !tbaa !44
  %16 = load ptr, ptr %2, align 8, !tbaa !3
  %17 = getelementptr inbounds nuw %struct._lv_group_t, ptr %16, i32 0, i32 3
  %18 = load ptr, ptr %17, align 8, !tbaa !12
  %19 = icmp ne ptr %18, null
  br i1 %19, label %20, label %29

20:                                               ; preds = %12
  %21 = load i8, ptr %3, align 1, !tbaa !44, !range !45, !noundef !46
  %22 = trunc i8 %21 to i1
  br i1 %22, label %28, label %23

23:                                               ; preds = %20
  %24 = load ptr, ptr %2, align 8, !tbaa !3
  %25 = getelementptr inbounds nuw %struct._lv_group_t, ptr %24, i32 0, i32 3
  %26 = load ptr, ptr %25, align 8, !tbaa !12
  %27 = load ptr, ptr %2, align 8, !tbaa !3
  call void %26(ptr noundef %27, i1 noundef zeroext true)
  br label %28

28:                                               ; preds = %23, %20
  br label %29

29:                                               ; preds = %28, %12
  call void @llvm.lifetime.end.p0(i64 1, ptr %3) #3
  ret void
}

; Function Attrs: nounwind uwtable
define internal void @lv_group_refocus(ptr noundef %0) #0 {
  %2 = alloca ptr, align 8
  %3 = alloca i8, align 1
  store ptr %0, ptr %2, align 8, !tbaa !3
  call void @llvm.lifetime.start.p0(i64 1, ptr %3) #3
  %4 = load ptr, ptr %2, align 8, !tbaa !3
  %5 = getelementptr inbounds nuw %struct._lv_group_t, ptr %4, i32 0, i32 5
  %6 = load i8, ptr %5, align 8
  %7 = lshr i8 %6, 3
  %8 = and i8 %7, 1
  store i8 %8, ptr %3, align 1, !tbaa !40
  %9 = load ptr, ptr %2, align 8, !tbaa !3
  %10 = getelementptr inbounds nuw %struct._lv_group_t, ptr %9, i32 0, i32 5
  %11 = load i8, ptr %10, align 8
  %12 = and i8 %11, -9
  %13 = or i8 %12, 8
  store i8 %13, ptr %10, align 8
  %14 = load ptr, ptr %2, align 8, !tbaa !3
  %15 = getelementptr inbounds nuw %struct._lv_group_t, ptr %14, i32 0, i32 5
  %16 = load i8, ptr %15, align 8
  %17 = lshr i8 %16, 2
  %18 = and i8 %17, 1
  %19 = zext i8 %18 to i32
  %20 = icmp eq i32 %19, 0
  br i1 %20, label %21, label %23

21:                                               ; preds = %1
  %22 = load ptr, ptr %2, align 8, !tbaa !3
  call void @lv_group_focus_next(ptr noundef %22)
  br label %34

23:                                               ; preds = %1
  %24 = load ptr, ptr %2, align 8, !tbaa !3
  %25 = getelementptr inbounds nuw %struct._lv_group_t, ptr %24, i32 0, i32 5
  %26 = load i8, ptr %25, align 8
  %27 = lshr i8 %26, 2
  %28 = and i8 %27, 1
  %29 = zext i8 %28 to i32
  %30 = icmp eq i32 %29, 1
  br i1 %30, label %31, label %33

31:                                               ; preds = %23
  %32 = load ptr, ptr %2, align 8, !tbaa !3
  call void @lv_group_focus_prev(ptr noundef %32)
  br label %33

33:                                               ; preds = %31, %23
  br label %34

34:                                               ; preds = %33, %21
  %35 = load i8, ptr %3, align 1, !tbaa !40
  %36 = load ptr, ptr %2, align 8, !tbaa !3
  %37 = getelementptr inbounds nuw %struct._lv_group_t, ptr %36, i32 0, i32 5
  %38 = load i8, ptr %37, align 8
  %39 = and i8 %35, 1
  %40 = shl i8 %39, 3
  %41 = and i8 %38, -9
  %42 = or i8 %41, %40
  store i8 %42, ptr %37, align 8
  call void @llvm.lifetime.end.p0(i64 1, ptr %3) #3
  ret void
}

; Function Attrs: nounwind uwtable
define void @lv_group_add_obj(ptr noundef %0, ptr noundef %1) #0 {
  %3 = alloca ptr, align 8
  %4 = alloca ptr, align 8
  %5 = alloca ptr, align 8
  %6 = alloca i32, align 4
  store ptr %0, ptr %3, align 8, !tbaa !3
  store ptr %1, ptr %4, align 8, !tbaa !3
  %7 = load ptr, ptr %3, align 8, !tbaa !3
  %8 = icmp eq ptr %7, null
  br i1 %8, label %9, label %10

9:                                                ; preds = %2
  br label %60

10:                                               ; preds = %2
  br label %11

11:                                               ; preds = %10
  br label %12

12:                                               ; preds = %11
  %13 = load ptr, ptr %4, align 8, !tbaa !3
  call void @lv_group_remove_obj(ptr noundef %13)
  %14 = load ptr, ptr %4, align 8, !tbaa !3
  %15 = getelementptr inbounds nuw %struct._lv_obj_t, ptr %14, i32 0, i32 2
  %16 = load ptr, ptr %15, align 8, !tbaa !14
  %17 = icmp eq ptr %16, null
  br i1 %17, label %18, label %20

18:                                               ; preds = %12
  %19 = load ptr, ptr %4, align 8, !tbaa !3
  call void @lv_obj_allocate_spec_attr(ptr noundef %19)
  br label %20

20:                                               ; preds = %18, %12
  %21 = load ptr, ptr %3, align 8, !tbaa !3
  %22 = load ptr, ptr %4, align 8, !tbaa !3
  %23 = getelementptr inbounds nuw %struct._lv_obj_t, ptr %22, i32 0, i32 2
  %24 = load ptr, ptr %23, align 8, !tbaa !14
  %25 = getelementptr inbounds nuw %struct._lv_obj_spec_attr_t, ptr %24, i32 0, i32 1
  store ptr %21, ptr %25, align 8, !tbaa !18
  call void @llvm.lifetime.start.p0(i64 8, ptr %5) #3
  %26 = load ptr, ptr %3, align 8, !tbaa !3
  %27 = getelementptr inbounds nuw %struct._lv_group_t, ptr %26, i32 0, i32 0
  %28 = call ptr @lv_ll_ins_tail(ptr noundef %27)
  store ptr %28, ptr %5, align 8, !tbaa !3
  br label %29

29:                                               ; preds = %20
  %30 = load ptr, ptr %5, align 8, !tbaa !3
  %31 = icmp ne ptr %30, null
  br i1 %31, label %38, label %32

32:                                               ; preds = %29
  br label %33

33:                                               ; preds = %32
  br label %34

34:                                               ; preds = %33
  br label %35

35:                                               ; preds = %34
  br label %36

36:                                               ; preds = %37, %35
  br label %37

37:                                               ; preds = %36
  br label %36

38:                                               ; preds = %29
  br label %39

39:                                               ; preds = %38
  br label %40

40:                                               ; preds = %39
  %41 = load ptr, ptr %5, align 8, !tbaa !3
  %42 = icmp eq ptr %41, null
  br i1 %42, label %43, label %44

43:                                               ; preds = %40
  store i32 1, ptr %6, align 4
  br label %58

44:                                               ; preds = %40
  %45 = load ptr, ptr %4, align 8, !tbaa !3
  %46 = load ptr, ptr %5, align 8, !tbaa !3
  store ptr %45, ptr %46, align 8, !tbaa !3
  %47 = load ptr, ptr %3, align 8, !tbaa !3
  %48 = getelementptr inbounds nuw %struct._lv_group_t, ptr %47, i32 0, i32 0
  %49 = call ptr @lv_ll_get_head(ptr noundef %48)
  %50 = load ptr, ptr %5, align 8, !tbaa !3
  %51 = icmp eq ptr %49, %50
  br i1 %51, label %52, label %54

52:                                               ; preds = %44
  %53 = load ptr, ptr %3, align 8, !tbaa !3
  call void @lv_group_refocus(ptr noundef %53)
  br label %54

54:                                               ; preds = %52, %44
  br label %55

55:                                               ; preds = %54
  br label %56

56:                                               ; preds = %55
  br label %57

57:                                               ; preds = %56
  store i32 0, ptr %6, align 4
  br label %58

58:                                               ; preds = %57, %43
  call void @llvm.lifetime.end.p0(i64 8, ptr %5) #3
  %59 = load i32, ptr %6, align 4
  switch i32 %59, label %61 [
    i32 0, label %60
    i32 1, label %60
  ]

60:                                               ; preds = %9, %58, %58
  ret void

61:                                               ; preds = %58
  unreachable
}