; Function Attrs: nounwind uwtable
define void @lv_group_add_obj(ptr noundef %0, ptr noundef %1) local_unnamed_addr #0 {
  %3 = icmp eq ptr %0, null
  br i1 %3, label %35, label %4

4:                                                ; preds = %2
  tail call void @lv_group_remove_obj(ptr noundef %1)
  %5 = getelementptr inbounds nuw i8, ptr %1, i64 16
  %6 = load ptr, ptr %5, align 8, !tbaa !14
  %7 = icmp eq ptr %6, null
  br i1 %7, label %8, label %9

8:                                                ; preds = %4
  tail call void @lv_obj_allocate_spec_attr(ptr noundef nonnull %1) #10
  %.pre = load ptr, ptr %5, align 8, !tbaa !14
  br label %9

9:                                                ; preds = %8, %4
  %10 = phi ptr [ %.pre, %8 ], [ %6, %4 ]
  %11 = getelementptr inbounds nuw i8, ptr %10, i64 8
  store ptr %0, ptr %11, align 8, !tbaa !18
  %12 = tail call ptr @lv_ll_ins_tail(ptr noundef nonnull %0) #10
  %.not = icmp eq ptr %12, null
  br i1 %.not, label %.preheader, label %13

.preheader:                                       ; preds = %9, %.preheader
  br label %.preheader

13:                                               ; preds = %9
  store ptr %1, ptr %12, align 8, !tbaa !11
  %14 = tail call ptr @lv_ll_get_head(ptr noundef nonnull %0) #10
  %15 = icmp eq ptr %14, %12
  br i1 %15, label %16, label %35

16:                                               ; preds = %13
  %17 = getelementptr inbounds nuw i8, ptr %0, i64 56
  %18 = load i8, ptr %17, align 8
  %19 = or i8 %18, 8
  store i8 %19, ptr %17, align 8
  %20 = and i8 %18, 4
  %21 = icmp eq i8 %20, 0
  %22 = getelementptr inbounds nuw i8, ptr %0, i64 40
  br i1 %21, label %23, label %27

23:                                               ; preds = %16
  %24 = tail call fastcc zeroext i1 @focus_next_core(ptr noundef nonnull %0, ptr noundef nonnull @lv_ll_get_head, ptr noundef nonnull @lv_ll_get_next)
  %25 = load ptr, ptr %22, align 8, !tbaa !36
  %.not6.i.i = icmp eq ptr %25, null
  %brmerge.i.i = or i1 %24, %.not6.i.i
  br i1 %brmerge.i.i, label %lv_group_refocus.exit, label %26

26:                                               ; preds = %23
  tail call void %25(ptr noundef nonnull %0, i1 noundef zeroext true) #10
  br label %lv_group_refocus.exit

27:                                               ; preds = %16
  %28 = tail call fastcc zeroext i1 @focus_next_core(ptr noundef nonnull %0, ptr noundef nonnull @lv_ll_get_tail, ptr noundef nonnull @lv_ll_get_prev)
  %29 = load ptr, ptr %22, align 8, !tbaa !36
  %.not6.i7.i = icmp eq ptr %29, null
  %brmerge.i8.i = or i1 %28, %.not6.i7.i
  br i1 %brmerge.i8.i, label %lv_group_refocus.exit, label %30

30:                                               ; preds = %27
  tail call void %29(ptr noundef nonnull %0, i1 noundef zeroext false) #10
  br label %lv_group_refocus.exit

lv_group_refocus.exit:                            ; preds = %23, %26, %27, %30
  %31 = and i8 %18, 8
  %32 = load i8, ptr %17, align 8
  %33 = and i8 %32, -9
  %34 = or disjoint i8 %33, %31
  store i8 %34, ptr %17, align 8
  br label %35

35:                                               ; preds = %13, %lv_group_refocus.exit, %2
  ret void
}